; Function Attrs: mustprogress nounwind uwtable
define hidden void @_ZN8IntervalC2Ei(ptr noundef nonnull align 8 dereferenceable(136) %0, i32 noundef %1) unnamed_addr #0 align 2 {
  store i32 %1, ptr %0, align 8
  %3 = getelementptr inbounds i8, ptr %0, i64 4
  store i8 99, ptr %3, align 4
  %4 = getelementptr inbounds i8, ptr %0, i64 8
  %5 = load ptr, ptr @_ZN5Range4_endE, align 8
  store ptr %5, ptr %4, align 8
  %6 = getelementptr inbounds i8, ptr %0, i64 16
  %7 = tail call noundef ptr @_ZN30GrowableArrayResourceAllocator8allocateEii(i32 noundef 12, i32 noundef 4) #22
  store i32 0, ptr %6, align 8
  %8 = getelementptr inbounds i8, ptr %0, i64 20
  store i32 12, ptr %8, align 4
  %9 = getelementptr inbounds i8, ptr %0, i64 24
  store ptr %7, ptr %9, align 8
  tail call void @llvm.memset.p0.i64(ptr noundef nonnull align 4 dereferenceable(48) %7, i8 0, i64 48, i1 false)
  %10 = getelementptr inbounds i8, ptr %0, i64 32
  store i64 0, ptr %10, align 8
  %11 = getelementptr inbounds i8, ptr %0, i64 40
  %12 = load ptr, ptr @_ZN5Range4_endE, align 8
  store ptr %12, ptr %11, align 8
  %13 = getelementptr inbounds i8, ptr %0, i64 48
  %14 = load ptr, ptr @_ZN8Interval4_endE, align 8
  store ptr %14, ptr %13, align 8
  %15 = getelementptr inbounds i8, ptr %0, i64 56
  %16 = getelementptr inbounds i8, ptr %0, i64 72
  tail call void @llvm.memset.p0.i64(ptr noundef nonnull align 8 dereferenceable(16) %15, i8 -1, i64 16, i1 false)
  %17 = load i64, ptr @_ZN11LIR_OprFact10illegalOprE, align 8
  store i64 %17, ptr %16, align 8
  %18 = getelementptr inbounds i8, ptr %0, i64 80
  store ptr @all_VMRegs, ptr %18, align 8
  %19 = getelementptr inbounds i8, ptr %0, i64 96
  store ptr null, ptr %19, align 8
  %20 = getelementptr inbounds i8, ptr %0, i64 112
  store i32 -1, ptr %20, align 8
  %21 = getelementptr inbounds i8, ptr %0, i64 116
  store i8 0, ptr %21, align 4
  %22 = getelementptr inbounds i8, ptr %0, i64 120
  store i32 0, ptr %22, align 8
  %23 = getelementptr inbounds i8, ptr %0, i64 124
  store i32 -1, ptr %23, align 4
  %24 = getelementptr inbounds i8, ptr %0, i64 128
  store ptr null, ptr %24, align 8
  %25 = getelementptr inbounds i8, ptr %0, i64 88
  store ptr %0, ptr %25, align 8
  %26 = getelementptr inbounds i8, ptr %0, i64 104
  store ptr %0, ptr %26, align 8
  ret void
}